Certificate:
    Data:
        Version: 3 (0x2)
        Serial Number: 1 (0x1)
        Signature Algorithm: sha1WithRSAEncryption
        Issuer: C=BA, ST=RS, L=Banja Luka, O=Elektrotehnicki fakultet, OU=ETF, CN=CA/emailAddress=ca@mail.com
        Validity
            Not Before: Jun  4 15:13:35 2022 GMT
            Not After : Jun  4 15:13:35 2023 GMT
        Subject: C=BA, ST=RS, O=Elektrotehnicki fakultet, OU=ETF, CN=ca1/emailAddress=ca1@mail.com
        Subject Public Key Info:
            Public Key Algorithm: rsaEncryption
                RSA Public-Key: (2048 bit)
                Modulus:
                    00:dd:aa:c4:3a:a8:8f:85:4b:ca:1f:14:c0:b0:ff:
                    b1:a7:2d:4e:c8:5d:ae:68:21:4a:f0:d7:e4:da:a8:
                    32:52:00:6b:a9:81:5f:74:a6:a1:ed:dd:d6:27:08:
                    ec:94:19:5e:29:bd:9d:25:eb:7b:98:5c:a1:3f:42:
                    64:b5:d9:90:f9:63:be:b5:60:df:4e:1f:22:7c:79:
                    35:de:90:d8:97:25:f8:d7:c0:3f:89:e7:e0:88:ad:
                    05:0e:3a:01:e4:c7:69:01:7b:d2:13:74:fd:22:10:
                    a0:c7:85:52:ae:65:90:1e:61:5e:1e:32:27:ad:13:
                    c8:b8:f2:55:d1:4f:2a:89:42:89:9f:e9:f4:31:9d:
                    85:7e:d9:b7:c9:60:e8:f2:56:65:a8:f1:2c:93:fb:
                    fa:e8:1d:77:0d:04:e7:5c:d8:1c:87:bf:82:5c:e6:
                    8e:5f:02:05:fc:0d:a1:fd:d2:34:a8:98:95:c7:ed:
                    7a:40:eb:36:86:a8:b7:a3:6d:fa:be:d8:a7:39:1d:
                    72:88:4e:64:af:16:e8:79:c2:da:37:42:4b:f4:03:
                    2c:1b:10:28:94:2f:c2:69:2e:e5:4d:37:76:a9:9a:
                    b8:af:81:1f:78:76:82:b5:55:ec:ef:28:5c:5d:36:
                    b4:23:7c:0d:e3:87:84:08:df:54:0b:80:aa:07:00:
                    c8:e5
                Exponent: 65537 (0x10001)
        X509v3 extensions:
            X509v3 Basic Constraints: 
                CA:TRUE
            X509v3 Key Usage: 
                Digital Signature, Non Repudiation, Key Encipherment, Data Encipherment, Key Agreement, CRL Sign
            X509v3 Extended Key Usage: 
                TLS Web Client Authentication, TLS Web Server Authentication
            Netscape Comment: 
                OpenSSL Generated Certificate
            X509v3 Subject Key Identifier: 
                3F:91:F2:17:7C:FF:C7:C8:C2:13:53:61:FB:38:C7:58:D0:6B:7F:3F
            X509v3 Authority Key Identifier: 
                keyid:D4:D8:78:92:C8:50:FF:64:02:54:C2:29:44:DB:63:60:11:7B:FB:D4

            X509v3 CRL Distribution Points: 

                Full Name:
                  URI:http://192.168.21.89/rootcrl.pem

    Signature Algorithm: sha1WithRSAEncryption
         1e:1d:8a:97:f0:67:c6:e5:25:0c:e4:9e:d3:47:01:ef:4b:ab:
         10:2b:ff:64:9e:9b:42:07:c8:a1:11:91:b5:f3:6b:4a:03:35:
         01:64:c3:ab:73:06:c6:63:62:f2:67:f5:65:05:de:63:83:2a:
         d0:0c:d9:83:cc:88:2e:42:0d:45:f3:a6:18:bd:f9:08:f0:27:
         3d:99:dc:00:75:10:04:e4:10:73:c7:3c:ac:31:36:05:6a:e3:
         1e:1e:69:dd:49:16:84:33:3b:ff:3b:f2:c9:d9:36:7a:00:5c:
         22:46:0a:be:c9:de:c3:22:4e:34:5d:d2:a8:62:55:32:a9:e7:
         cb:aa:dd:a6:d0:fb:1d:09:db:9a:8f:61:f7:bf:e1:93:06:67:
         b6:1c:42:3f:ad:88:68:d7:56:bf:17:8e:e0:12:ab:b4:b3:12:
         1c:39:5e:50:2d:1b:8f:b3:fc:c1:48:22:e4:12:de:29:69:5c:
         95:c0:6e:d4:ed:14:54:1c:42:fb:5d:a4:24:e4:c6:70:49:44:
         35:a2:85:ba:56:52:6b:66:ca:50:8f:8f:57:16:cf:1e:43:27:
         25:09:28:34:ca:da:c4:f0:cd:88:f0:89:e6:e3:d9:a1:c7:8a:
         4b:a3:03:1b:83:0a:f2:89:b0:c2:3e:ea:e5:26:fd:90:91:b0:
         80:4c:22:e2
-----BEGIN CERTIFICATE-----
MIIEWjCCA0KgAwIBAgIBATANBgkqhkiG9w0BAQUFADCBiTELMAkGA1UEBhMCQkEx
CzAJBgNVBAgTAlJTMRMwEQYDVQQHEwpCYW5qYSBMdWthMSEwHwYDVQQKExhFbGVr
dHJvdGVobmlja2kgZmFrdWx0ZXQxDDAKBgNVBAsTA0VURjELMAkGA1UEAxMCQ0Ex
GjAYBgkqhkiG9w0BCQEWC2NhQG1haWwuY29tMB4XDTIyMDYwNDE1MTMzNVoXDTIz
MDYwNDE1MTMzNVowdjELMAkGA1UEBhMCQkExCzAJBgNVBAgTAlJTMSEwHwYDVQQK
ExhFbGVrdHJvdGVobmlja2kgZmFrdWx0ZXQxDDAKBgNVBAsTA0VURjEMMAoGA1UE
AxMDY2ExMRswGQYJKoZIhvcNAQkBFgxjYTFAbWFpbC5jb20wggEiMA0GCSqGSIb3
DQEBAQUAA4IBDwAwggEKAoIBAQDdqsQ6qI+FS8ofFMCw/7GnLU7IXa5oIUrw1+Ta
qDJSAGupgV90pqHt3dYnCOyUGV4pvZ0l63uYXKE/QmS12ZD5Y761YN9OHyJ8eTXe
kNiXJfjXwD+J5+CIrQUOOgHkx2kBe9ITdP0iEKDHhVKuZZAeYV4eMietE8i48lXR
TyqJQomf6fQxnYV+2bfJYOjyVmWo8SyT+/roHXcNBOdc2ByHv4Jc5o5fAgX8DaH9
0jSomJXH7XpA6zaGqLejbfq+2Kc5HXKITmSvFuh5wto3Qkv0AywbECiUL8JpLuVN
N3apmrivgR94doK1VezvKFxdNrQjfA3jh4QI31QLgKoHAMjlAgMBAAGjgd4wgdsw
DAYDVR0TBAUwAwEB/zALBgNVHQ8EBAMCAfowHQYDVR0lBBYwFAYIKwYBBQUHAwIG
CCsGAQUFBwMBMCwGCWCGSAGG+EIBDQQfFh1PcGVuU1NMIEdlbmVyYXRlZCBDZXJ0
aWZpY2F0ZTAdBgNVHQ4EFgQUP5HyF3z/x8jCE1Nh+zjHWNBrfz8wHwYDVR0jBBgw
FoAU1Nh4kshQ/2QCVMIpRNtjYBF7+9QwMQYDVR0fBCowKDAmoCSgIoYgaHR0cDov
LzE5Mi4xNjguMjEuODkvcm9vdGNybC5wZW0wDQYJKoZIhvcNAQEFBQADggEBAB4d
ipfwZ8blJQzkntNHAe9LqxAr/2Sem0IHyKERkbXza0oDNQFkw6tzBsZjYvJn9WUF
3mODKtAM2YPMiC5CDUXzphi9+QjwJz2Z3AB1EATkEHPHPKwxNgVq4x4ead1JFoQz
O/878snZNnoAXCJGCr7J3sMiTjRd0qhiVTKp58uq3abQ+x0J25qPYfe/4ZMGZ7Yc
Qj+tiGjXVr8XjuASq7SzEhw5XlAtG4+z/MFIIuQS3ilpXJXAbtTtFFQcQvtdpCTk
xnBJRDWihbpWUmtmylCPj1cWzx5DJyUJKDTK2sTwzYjwiebj2aHHikujAxuDCvKJ
sMI+6uUm/ZCRsIBMIuI=
-----END CERTIFICATE-----
